target datalayout = "e-m:e-p270:32:32-p271:32:32-p272:64:64-i64:64-i128:128-f80:128-n8:16:32:64-S128"
target triple = "x86_64-pc-linux-gnu"

%"class.llvm::SUnit" = type <{ %union.anon, ptr, ptr, ptr, ptr, %"class.llvm::SmallVector", %"class.llvm::SmallVector", i32, i32, i32, i32, i32, i32, i32, i32, i32, i32, i32, i32, i16, i16, i16, i8, i8 }>
%union.anon = type { ptr }
%"class.llvm::SmallVector" = type { %"class.llvm::SmallVectorImpl", %"struct.llvm::SmallVectorStorage" }
%"class.llvm::SmallVectorImpl" = type { %"class.llvm::SmallVectorTemplateBase" }
%"class.llvm::SmallVectorTemplateBase" = type { %"class.llvm::SmallVectorTemplateCommon" }
%"class.llvm::SmallVectorTemplateCommon" = type { %"class.llvm::SmallVectorBase" }
%"class.llvm::SmallVectorBase" = type { ptr, i32, i32 }
%"struct.llvm::SmallVectorStorage" = type { [64 x i8] }
%"struct.llvm::latency_sort" = type { ptr }
%"class.llvm::LatencyPriorityQueue" = type { %"class.llvm::SchedulingPriorityQueue.base", ptr, %"class.std::vector", %"class.std::vector.0", %"struct.llvm::latency_sort" }
%"class.llvm::SchedulingPriorityQueue.base" = type <{ ptr, i32, i8 }>
%"class.std::vector" = type { %"struct.std::_Vector_base" }
%"struct.std::_Vector_base" = type { %"struct.std::_Vector_base<unsigned int, std::allocator<unsigned int>>::_Vector_impl" }
%"struct.std::_Vector_base<unsigned int, std::allocator<unsigned int>>::_Vector_impl" = type { %"struct.std::_Vector_base<unsigned int, std::allocator<unsigned int>>::_Vector_impl_data" }
%"struct.std::_Vector_base<unsigned int, std::allocator<unsigned int>>::_Vector_impl_data" = type { ptr, ptr, ptr }
%"class.std::vector.0" = type { %"struct.std::_Vector_base.1" }
%"struct.std::_Vector_base.1" = type { %"struct.std::_Vector_base<llvm::SUnit *, std::allocator<llvm::SUnit *>>::_Vector_impl" }
%"struct.std::_Vector_base<llvm::SUnit *, std::allocator<llvm::SUnit *>>::_Vector_impl" = type { %"struct.std::_Vector_base<llvm::SUnit *, std::allocator<llvm::SUnit *>>::_Vector_impl_data" }
%"struct.std::_Vector_base<llvm::SUnit *, std::allocator<llvm::SUnit *>>::_Vector_impl_data" = type { ptr, ptr, ptr }
%"struct.std::_Vector_base.7" = type { %"struct.std::_Vector_base<llvm::SUnit, std::allocator<llvm::SUnit>>::_Vector_impl" }
%"struct.std::_Vector_base<llvm::SUnit, std::allocator<llvm::SUnit>>::_Vector_impl" = type { %"struct.std::_Vector_base<llvm::SUnit, std::allocator<llvm::SUnit>>::_Vector_impl_data" }
%"struct.std::_Vector_base<llvm::SUnit, std::allocator<llvm::SUnit>>::_Vector_impl_data" = type { ptr, ptr, ptr }

; Function Attrs: mustprogress nounwind uwtable
define linkonce_odr hidden noundef nonnull align 4 dereferenceable(4) ptr @_ZNKSt6vectorIjSaIjEEixEm(ptr noundef nonnull align 8 dereferenceable(24) %0, i64 noundef %1) #0 comdat align 2 {
  %3 = alloca ptr, align 8
  %4 = alloca i64, align 8
  store ptr %0, ptr %3, align 8
  store i64 %1, ptr %4, align 8
  %5 = load ptr, ptr %3, align 8
  %6 = getelementptr inbounds nuw %"struct.std::_Vector_base", ptr %5, i32 0, i32 0
  %7 = getelementptr inbounds nuw %"struct.std::_Vector_base<unsigned int, std::allocator<unsigned int>>::_Vector_impl_data", ptr %6, i32 0, i32 0
  %8 = load ptr, ptr %7, align 8
  %9 = load i64, ptr %4, align 8
  %10 = getelementptr inbounds i32, ptr %8, i64 %9
  ret ptr %10
}

; Function Attrs: mustprogress nounwind uwtable
define linkonce_odr hidden noundef i32 @_ZNK4llvm5SUnit9getHeightEv(ptr noundef nonnull align 8 dereferenceable(255) %0) #0 comdat align 2 {
  %2 = alloca ptr, align 8
  store ptr %0, ptr %2, align 8
  %3 = load ptr, ptr %2, align 8
  %4 = getelementptr inbounds nuw %"class.llvm::SUnit", ptr %3, i32 0, i32 22
  %5 = load i8, ptr %4, align 2
  %6 = lshr i8 %5, 1
  %7 = and i8 %6, 1
  %8 = trunc i8 %7 to i1
  br i1 %8, label %10, label %9

9:                                                ; preds = %1
  call void @_ZN4llvm5SUnit13ComputeHeightEv(ptr noundef nonnull align 8 dereferenceable(255) %3)
  br label %10

10:                                               ; preds = %9, %1
  %11 = getelementptr inbounds nuw %"class.llvm::SUnit", ptr %3, i32 0, i32 18
  %12 = load i32, ptr %11, align 4
  ret i32 %12
}

; Function Attrs: mustprogress nounwind uwtable
define linkonce_odr hidden noundef nonnull align 8 dereferenceable(255) ptr @_ZNSt6vectorIN4llvm5SUnitESaIS1_EEixEm(ptr noundef nonnull align 8 dereferenceable(24) %0, i64 noundef %1) #0 comdat align 2 {
  %3 = alloca ptr, align 8
  %4 = alloca i64, align 8
  store ptr %0, ptr %3, align 8
  store i64 %1, ptr %4, align 8
  %5 = load ptr, ptr %3, align 8
  %6 = getelementptr inbounds nuw %"struct.std::_Vector_base.7", ptr %5, i32 0, i32 0
  %7 = getelementptr inbounds nuw %"struct.std::_Vector_base<llvm::SUnit, std::allocator<llvm::SUnit>>::_Vector_impl_data", ptr %6, i32 0, i32 0
  %8 = load ptr, ptr %7, align 8
  %9 = load i64, ptr %4, align 8
  %10 = getelementptr inbounds %"class.llvm::SUnit", ptr %8, i64 %9
  ret ptr %10
}

; Function Attrs: mustprogress nounwind uwtable
define linkonce_odr hidden noundef i32 @_ZNK4llvm20LatencyPriorityQueue22getNumSolelyBlockNodesEj(ptr noundef nonnull align 8 dereferenceable(80) %0, i32 noundef %1) #0 comdat align 2 {
  %3 = alloca ptr, align 8
  %4 = alloca i32, align 4
  store ptr %0, ptr %3, align 8
  store i32 %1, ptr %4, align 4
  %5 = load ptr, ptr %3, align 8
  %6 = getelementptr inbounds nuw %"class.llvm::LatencyPriorityQueue", ptr %5, i32 0, i32 2
  %7 = load i32, ptr %4, align 4
  %8 = zext i32 %7 to i64
  %9 = call noundef nonnull align 4 dereferenceable(4) ptr @_ZNKSt6vectorIjSaIjEEixEm(ptr noundef nonnull align 8 dereferenceable(24) %6, i64 noundef %8) #7
  %10 = load i32, ptr %9, align 4
  ret i32 %10
}

; Function Attrs: mustprogress nounwind uwtable
define linkonce_odr hidden noundef i32 @_ZNK4llvm20LatencyPriorityQueue10getLatencyEj(ptr noundef nonnull align 8 dereferenceable(80) %0, i32 noundef %1) #0 comdat align 2 {
  %3 = alloca ptr, align 8
  %4 = alloca i32, align 4
  store ptr %0, ptr %3, align 8
  store i32 %1, ptr %4, align 4
  %5 = load ptr, ptr %3, align 8
  %6 = getelementptr inbounds nuw %"class.llvm::LatencyPriorityQueue", ptr %5, i32 0, i32 1
  %7 = load ptr, ptr %6, align 8
  %8 = load i32, ptr %4, align 4
  %9 = zext i32 %8 to i64
  %10 = call noundef nonnull align 8 dereferenceable(255) ptr @_ZNSt6vectorIN4llvm5SUnitESaIS1_EEixEm(ptr noundef nonnull align 8 dereferenceable(24) %7, i64 noundef %9) #7
  %11 = call noundef i32 @_ZNK4llvm5SUnit9getHeightEv(ptr noundef nonnull align 8 dereferenceable(255) %10)
  ret i32 %11
}

; Function Attrs: mustprogress nounwind uwtable
define dso_local noundef zeroext i1 @_ZNK4llvm12latency_sortclEPKNS_5SUnitES3_(ptr noundef nonnull align 8 dereferenceable(8) %0, ptr noundef %1, ptr noundef %2) #0 align 2 {
  %4 = alloca i1, align 1
  %5 = alloca ptr, align 8
  %6 = alloca ptr, align 8
  %7 = alloca ptr, align 8
  %8 = alloca i32, align 4
  %9 = alloca i32, align 4
  %10 = alloca i32, align 4
  %11 = alloca i32, align 4
  %12 = alloca i32, align 4
  %13 = alloca i32, align 4
  store ptr %0, ptr %5, align 8
  store ptr %1, ptr %6, align 8
  store ptr %2, ptr %7, align 8
  %14 = load ptr, ptr %5, align 8
  %15 = load ptr, ptr %6, align 8
  %16 = getelementptr inbounds nuw %"class.llvm::SUnit", ptr %15, i32 0, i32 19
  %17 = load i16, ptr %16, align 8
  %18 = lshr i16 %17, 11
  %19 = and i16 %18, 1
  %20 = trunc i16 %19 to i1
  br i1 %20, label %21, label %29

21:                                               ; preds = %3
  %22 = load ptr, ptr %7, align 8
  %23 = getelementptr inbounds nuw %"class.llvm::SUnit", ptr %22, i32 0, i32 19
  %24 = load i16, ptr %23, align 8
  %25 = lshr i16 %24, 11
  %26 = and i16 %25, 1
  %27 = trunc i16 %26 to i1
  br i1 %27, label %29, label %28

28:                                               ; preds = %21
  store i1 false, ptr %4, align 1
  br label %90

29:                                               ; preds = %21, %3
  %30 = load ptr, ptr %6, align 8
  %31 = getelementptr inbounds nuw %"class.llvm::SUnit", ptr %30, i32 0, i32 19
  %32 = load i16, ptr %31, align 8
  %33 = lshr i16 %32, 11
  %34 = and i16 %33, 1
  %35 = trunc i16 %34 to i1
  br i1 %35, label %44, label %36

36:                                               ; preds = %29
  %37 = load ptr, ptr %7, align 8
  %38 = getelementptr inbounds nuw %"class.llvm::SUnit", ptr %37, i32 0, i32 19
  %39 = load i16, ptr %38, align 8
  %40 = lshr i16 %39, 11
  %41 = and i16 %40, 1
  %42 = trunc i16 %41 to i1
  br i1 %42, label %43, label %44

43:                                               ; preds = %36
  store i1 true, ptr %4, align 1
  br label %90

44:                                               ; preds = %36, %29
  %45 = load ptr, ptr %6, align 8
  %46 = getelementptr inbounds nuw %"class.llvm::SUnit", ptr %45, i32 0, i32 7
  %47 = load i32, ptr %46, align 8
  store i32 %47, ptr %8, align 4
  %48 = load ptr, ptr %7, align 8
  %49 = getelementptr inbounds nuw %"class.llvm::SUnit", ptr %48, i32 0, i32 7
  %50 = load i32, ptr %49, align 8
  store i32 %50, ptr %9, align 4
  %51 = getelementptr inbounds nuw %"struct.llvm::latency_sort", ptr %14, i32 0, i32 0
  %52 = load ptr, ptr %51, align 8
  %53 = load i32, ptr %8, align 4
  %54 = call noundef i32 @_ZNK4llvm20LatencyPriorityQueue10getLatencyEj(ptr noundef nonnull align 8 dereferenceable(80) %52, i32 noundef %53)
  store i32 %54, ptr %10, align 4
  %55 = getelementptr inbounds nuw %"struct.llvm::latency_sort", ptr %14, i32 0, i32 0
  %56 = load ptr, ptr %55, align 8
  %57 = load i32, ptr %9, align 4
  %58 = call noundef i32 @_ZNK4llvm20LatencyPriorityQueue10getLatencyEj(ptr noundef nonnull align 8 dereferenceable(80) %56, i32 noundef %57)
  store i32 %58, ptr %11, align 4
  %59 = load i32, ptr %10, align 4
  %60 = load i32, ptr %11, align 4
  %61 = icmp ult i32 %59, %60
  br i1 %61, label %62, label %63

62:                                               ; preds = %44
  store i1 true, ptr %4, align 1
  br label %90

63:                                               ; preds = %44
  %64 = load i32, ptr %10, align 4
  %65 = load i32, ptr %11, align 4
  %66 = icmp ugt i32 %64, %65
  br i1 %66, label %67, label %68

67:                                               ; preds = %63
  store i1 false, ptr %4, align 1
  br label %90

68:                                               ; preds = %63
  %69 = getelementptr inbounds nuw %"struct.llvm::latency_sort", ptr %14, i32 0, i32 0
  %70 = load ptr, ptr %69, align 8
  %71 = load i32, ptr %8, align 4
  %72 = call noundef i32 @_ZNK4llvm20LatencyPriorityQueue22getNumSolelyBlockNodesEj(ptr noundef nonnull align 8 dereferenceable(80) %70, i32 noundef %71)
  store i32 %72, ptr %12, align 4
  %73 = getelementptr inbounds nuw %"struct.llvm::latency_sort", ptr %14, i32 0, i32 0
  %74 = load ptr, ptr %73, align 8
  %75 = load i32, ptr %9, align 4
  %76 = call noundef i32 @_ZNK4llvm20LatencyPriorityQueue22getNumSolelyBlockNodesEj(ptr noundef nonnull align 8 dereferenceable(80) %74, i32 noundef %75)
  store i32 %76, ptr %13, align 4
  %77 = load i32, ptr %12, align 4
  %78 = load i32, ptr %13, align 4
  %79 = icmp ult i32 %77, %78
  br i1 %79, label %80, label %81

80:                                               ; preds = %68
  store i1 true, ptr %4, align 1
  br label %90

81:                                               ; preds = %68
  %82 = load i32, ptr %12, align 4
  %83 = load i32, ptr %13, align 4
  %84 = icmp ugt i32 %82, %83
  br i1 %84, label %85, label %86

85:                                               ; preds = %81
  store i1 false, ptr %4, align 1
  br label %90

86:                                               ; preds = %81
  %87 = load i32, ptr %9, align 4
  %88 = load i32, ptr %8, align 4
  %89 = icmp ult i32 %87, %88
  store i1 %89, ptr %4, align 1
  br label %90

90:                                               ; preds = %86, %85, %80, %67, %62, %43, %28
  %91 = load i1, ptr %4, align 1
  ret i1 %91
}