; Function Attrs: mustprogress nounwind uwtable
define dso_local noundef zeroext i1 @_ZNK4llvm12latency_sortclEPKNS_5SUnitES3_(ptr nocapture noundef nonnull readonly align 8 dereferenceable(8) %0, ptr nocapture noundef readonly %1, ptr nocapture noundef readonly %2) local_unnamed_addr #0 align 2 {
  %4 = getelementptr inbounds nuw i8, ptr %1, i64 248
  %5 = load i16, ptr %4, align 8
  %6 = and i16 %5, 2048
  %.not = icmp eq i16 %6, 0
  %7 = getelementptr inbounds nuw i8, ptr %2, i64 248
  %8 = load i16, ptr %7, align 8
  %9 = and i16 %8, 2048
  %.not27 = icmp eq i16 %9, 0
  br i1 %.not, label %11, label %10

10:                                               ; preds = %3
  br i1 %.not27, label %53, label %12

11:                                               ; preds = %3
  br i1 %.not27, label %12, label %53

12:                                               ; preds = %10, %11
  %13 = getelementptr inbounds nuw i8, ptr %1, i64 200
  %14 = load i32, ptr %13, align 8
  %15 = getelementptr inbounds nuw i8, ptr %2, i64 200
  %16 = load i32, ptr %15, align 8
  %17 = load ptr, ptr %0, align 8
  %18 = getelementptr inbounds nuw i8, ptr %17, i64 16
  %19 = load ptr, ptr %18, align 8
  %20 = zext i32 %14 to i64
  %21 = load ptr, ptr %19, align 8
  %22 = getelementptr inbounds %"class.llvm::SUnit", ptr %21, i64 %20
  %23 = getelementptr inbounds nuw i8, ptr %22, i64 254
  %24 = load i8, ptr %23, align 2
  %25 = and i8 %24, 2
  %.not.i.i = icmp eq i8 %25, 0
  br i1 %.not.i.i, label %26, label %_ZNK4llvm20LatencyPriorityQueue10getLatencyEj.exit

26:                                               ; preds = %12
  tail call void @_ZN4llvm5SUnit13ComputeHeightEv(ptr noundef nonnull align 8 dereferenceable(255) %22) #8
  %.pre = load ptr, ptr %0, align 8
  %.phi.trans.insert = getelementptr inbounds nuw i8, ptr %.pre, i64 16
  %.pre30 = load ptr, ptr %.phi.trans.insert, align 8
  %.pre31 = load ptr, ptr %.pre30, align 8
  br label %_ZNK4llvm20LatencyPriorityQueue10getLatencyEj.exit

_ZNK4llvm20LatencyPriorityQueue10getLatencyEj.exit: ; preds = %12, %26
  %27 = phi ptr [ %21, %12 ], [ %.pre31, %26 ]
  %28 = getelementptr inbounds nuw i8, ptr %22, i64 244
  %29 = load i32, ptr %28, align 4
  %30 = zext i32 %16 to i64
  %31 = getelementptr inbounds %"class.llvm::SUnit", ptr %27, i64 %30
  %32 = getelementptr inbounds nuw i8, ptr %31, i64 254
  %33 = load i8, ptr %32, align 2
  %34 = and i8 %33, 2
  %.not.i.i28 = icmp eq i8 %34, 0
  br i1 %.not.i.i28, label %35, label %_ZNK4llvm20LatencyPriorityQueue10getLatencyEj.exit29

35:                                               ; preds = %_ZNK4llvm20LatencyPriorityQueue10getLatencyEj.exit
  tail call void @_ZN4llvm5SUnit13ComputeHeightEv(ptr noundef nonnull align 8 dereferenceable(255) %31) #8
  br label %_ZNK4llvm20LatencyPriorityQueue10getLatencyEj.exit29

_ZNK4llvm20LatencyPriorityQueue10getLatencyEj.exit29: ; preds = %_ZNK4llvm20LatencyPriorityQueue10getLatencyEj.exit, %35
  %36 = getelementptr inbounds nuw i8, ptr %31, i64 244
  %37 = load i32, ptr %36, align 4
  %38 = icmp ult i32 %29, %37
  br i1 %38, label %53, label %39

39:                                               ; preds = %_ZNK4llvm20LatencyPriorityQueue10getLatencyEj.exit29
  %40 = icmp ugt i32 %29, %37
  br i1 %40, label %53, label %41

41:                                               ; preds = %39
  %42 = load ptr, ptr %0, align 8
  %43 = getelementptr inbounds nuw i8, ptr %42, i64 24
  %44 = load ptr, ptr %43, align 8
  %45 = getelementptr inbounds i32, ptr %44, i64 %20
  %46 = load i32, ptr %45, align 4
  %47 = getelementptr inbounds i32, ptr %44, i64 %30
  %48 = load i32, ptr %47, align 4
  %49 = icmp ult i32 %46, %48
  br i1 %49, label %53, label %50

50:                                               ; preds = %41
  %51 = icmp ule i32 %46, %48
  %52 = icmp ult i32 %16, %14
  %spec.select = select i1 %51, i1 %52, i1 false
  br label %53

53:                                               ; preds = %50, %41, %39, %_ZNK4llvm20LatencyPriorityQueue10getLatencyEj.exit29, %11, %10
  %.0 = phi i1 [ false, %10 ], [ true, %11 ], [ true, %_ZNK4llvm20LatencyPriorityQueue10getLatencyEj.exit29 ], [ false, %39 ], [ true, %41 ], [ %spec.select, %50 ]
  ret i1 %.0
}